target datalayout = "e-m:e-p270:32:32-p271:32:32-p272:64:64-i64:64-i128:128-f80:128-n8:16:32:64-S128"
target triple = "x86_64-unknown-linux-gnu"

%"class.icu_75::UObject" = type { ptr }
%"class.icu_75::FixedDecimal" = type { %"class.icu_75::IFixedDecimal", %"class.icu_75::UObject", double, i32, i64, i64, i64, i32, i8, i8, i8, i8 }
%"class.icu_75::IFixedDecimal" = type { ptr }

@_ZTVN6icu_757UObjectE = external unnamed_addr constant { [5 x ptr] }, align 8
@_ZTVN6icu_7513IFixedDecimalE = external unnamed_addr constant { [8 x ptr] }, align 8

; Function Attrs: mustprogress uwtable
define void @_ZN6icu_7512FixedDecimal4initEdilii(ptr noundef nonnull align 8 dereferenceable(64) %this, double noundef %n, i32 noundef %v, i64 noundef %f, i32 noundef %e, i32 noundef %c) #1 align 2 {
entry:
  %this.addr = alloca ptr, align 8
  %n.addr = alloca double, align 8
  %v.addr = alloca i32, align 4
  %f.addr = alloca i64, align 8
  %e.addr = alloca i32, align 4
  %c.addr = alloca i32, align 4
  %fdwtz = alloca i64, align 8
  store ptr %this, ptr %this.addr, align 8
  store double %n, ptr %n.addr, align 8
  store i32 %v, ptr %v.addr, align 4
  store i64 %f, ptr %f.addr, align 8
  store i32 %e, ptr %e.addr, align 4
  store i32 %c, ptr %c.addr, align 4
  %this1 = load ptr, ptr %this.addr, align 8
  %0 = load double, ptr %n.addr, align 8
  %cmp = fcmp olt double %0, 0.000000e+00
  %conv = zext i1 %cmp to i8
  %isNegative = getelementptr inbounds %"class.icu_75::FixedDecimal", ptr %this1, i32 0, i32 9
  store i8 %conv, ptr %isNegative, align 1
  %1 = load double, ptr %n.addr, align 8
  %2 = call double @llvm.fabs.f64(double %1)
  %source = getelementptr inbounds %"class.icu_75::FixedDecimal", ptr %this1, i32 0, i32 2
  store double %2, ptr %source, align 8
  %source2 = getelementptr inbounds %"class.icu_75::FixedDecimal", ptr %this1, i32 0, i32 2
  %3 = load double, ptr %source2, align 8
  %call = call signext i8 @uprv_isNaN_75(double noundef %3)
  %_isNaN = getelementptr inbounds %"class.icu_75::FixedDecimal", ptr %this1, i32 0, i32 10
  store i8 %call, ptr %_isNaN, align 2
  %source3 = getelementptr inbounds %"class.icu_75::FixedDecimal", ptr %this1, i32 0, i32 2
  %4 = load double, ptr %source3, align 8
  %call4 = call signext i8 @uprv_isInfinite_75(double noundef %4)
  %_isInfinite = getelementptr inbounds %"class.icu_75::FixedDecimal", ptr %this1, i32 0, i32 11
  store i8 %call4, ptr %_isInfinite, align 1
  %5 = load i32, ptr %e.addr, align 4
  %exponent = getelementptr inbounds %"class.icu_75::FixedDecimal", ptr %this1, i32 0, i32 7
  store i32 %5, ptr %exponent, align 8
  %exponent5 = getelementptr inbounds %"class.icu_75::FixedDecimal", ptr %this1, i32 0, i32 7
  %6 = load i32, ptr %exponent5, align 8
  %cmp6 = icmp eq i32 %6, 0
  br i1 %cmp6, label %if.then, label %if.end

if.then:                                          ; preds = %entry
  %7 = load i32, ptr %c.addr, align 4
  %exponent7 = getelementptr inbounds %"class.icu_75::FixedDecimal", ptr %this1, i32 0, i32 7
  store i32 %7, ptr %exponent7, align 8
  br label %if.end

if.end:                                           ; preds = %if.then, %entry
  %_isNaN8 = getelementptr inbounds %"class.icu_75::FixedDecimal", ptr %this1, i32 0, i32 10
  %8 = load i8, ptr %_isNaN8, align 2
  %tobool = icmp ne i8 %8, 0
  br i1 %tobool, label %if.then11, label %lor.lhs.false

lor.lhs.false:                                    ; preds = %if.end
  %_isInfinite9 = getelementptr inbounds %"class.icu_75::FixedDecimal", ptr %this1, i32 0, i32 11
  %9 = load i8, ptr %_isInfinite9, align 1
  %tobool10 = icmp ne i8 %9, 0
  br i1 %tobool10, label %if.then11, label %if.else

if.then11:                                        ; preds = %lor.lhs.false, %if.end
  store i32 0, ptr %v.addr, align 4
  store i64 0, ptr %f.addr, align 8
  %intValue = getelementptr inbounds %"class.icu_75::FixedDecimal", ptr %this1, i32 0, i32 6
  store i64 0, ptr %intValue, align 8
  %_hasIntegerValue = getelementptr inbounds %"class.icu_75::FixedDecimal", ptr %this1, i32 0, i32 8
  store i8 0, ptr %_hasIntegerValue, align 4
  br label %if.end21

if.else:                                          ; preds = %lor.lhs.false
  %source12 = getelementptr inbounds %"class.icu_75::FixedDecimal", ptr %this1, i32 0, i32 2
  %10 = load double, ptr %source12, align 8
  %conv13 = fptosi double %10 to i64
  %intValue14 = getelementptr inbounds %"class.icu_75::FixedDecimal", ptr %this1, i32 0, i32 6
  store i64 %conv13, ptr %intValue14, align 8
  %source15 = getelementptr inbounds %"class.icu_75::FixedDecimal", ptr %this1, i32 0, i32 2
  %11 = load double, ptr %source15, align 8
  %intValue16 = getelementptr inbounds %"class.icu_75::FixedDecimal", ptr %this1, i32 0, i32 6
  %12 = load i64, ptr %intValue16, align 8
  %conv17 = sitofp i64 %12 to double
  %cmp18 = fcmp oeq double %11, %conv17
  %conv19 = zext i1 %cmp18 to i8
  %_hasIntegerValue20 = getelementptr inbounds %"class.icu_75::FixedDecimal", ptr %this1, i32 0, i32 8
  store i8 %conv19, ptr %_hasIntegerValue20, align 4
  br label %if.end21

if.end21:                                         ; preds = %if.else, %if.then11
  %13 = load i32, ptr %v.addr, align 4
  %visibleDecimalDigitCount = getelementptr inbounds %"class.icu_75::FixedDecimal", ptr %this1, i32 0, i32 3
  store i32 %13, ptr %visibleDecimalDigitCount, align 8
  %14 = load i64, ptr %f.addr, align 8
  %decimalDigits = getelementptr inbounds %"class.icu_75::FixedDecimal", ptr %this1, i32 0, i32 4
  store i64 %14, ptr %decimalDigits, align 8
  %15 = load i64, ptr %f.addr, align 8
  %cmp22 = icmp eq i64 %15, 0
  br i1 %cmp22, label %if.then23, label %if.else24

if.then23:                                        ; preds = %if.end21
  %decimalDigitsWithoutTrailingZeros = getelementptr inbounds %"class.icu_75::FixedDecimal", ptr %this1, i32 0, i32 5
  store i64 0, ptr %decimalDigitsWithoutTrailingZeros, align 8
  br label %if.end27

if.else24:                                        ; preds = %if.end21
  %16 = load i64, ptr %f.addr, align 8
  store i64 %16, ptr %fdwtz, align 8
  br label %while.cond

while.cond:                                       ; preds = %while.body, %if.else24
  %17 = load i64, ptr %fdwtz, align 8
  %rem = srem i64 %17, 10
  %cmp25 = icmp eq i64 %rem, 0
  br i1 %cmp25, label %while.body, label %while.end

while.body:                                       ; preds = %while.cond
  %18 = load i64, ptr %fdwtz, align 8
  %div = sdiv i64 %18, 10
  store i64 %div, ptr %fdwtz, align 8
  br label %while.cond, !llvm.loop !30

while.end:                                        ; preds = %while.cond
  %19 = load i64, ptr %fdwtz, align 8
  %decimalDigitsWithoutTrailingZeros26 = getelementptr inbounds %"class.icu_75::FixedDecimal", ptr %this1, i32 0, i32 5
  store i64 %19, ptr %decimalDigitsWithoutTrailingZeros26, align 8
  br label %if.end27

if.end27:                                         ; preds = %while.end, %if.then23
  ret void
}

; Function Attrs: mustprogress uwtable
define void @_ZN6icu_7512FixedDecimal4initEdili(ptr noundef nonnull align 8 dereferenceable(64) %this, double noundef %n, i32 noundef %v, i64 noundef %f, i32 noundef %e) #1 align 2 {
entry:
  %this.addr = alloca ptr, align 8
  %n.addr = alloca double, align 8
  %v.addr = alloca i32, align 4
  %f.addr = alloca i64, align 8
  %e.addr = alloca i32, align 4
  store ptr %this, ptr %this.addr, align 8
  store double %n, ptr %n.addr, align 8
  store i32 %v, ptr %v.addr, align 4
  store i64 %f, ptr %f.addr, align 8
  store i32 %e, ptr %e.addr, align 4
  %this1 = load ptr, ptr %this.addr, align 8
  %0 = load double, ptr %n.addr, align 8
  %1 = load i32, ptr %v.addr, align 4
  %2 = load i64, ptr %f.addr, align 8
  %3 = load i32, ptr %e.addr, align 4
  %4 = load i32, ptr %e.addr, align 4
  call void @_ZN6icu_7512FixedDecimal4initEdilii(ptr noundef nonnull align 8 dereferenceable(64) %this1, double noundef %0, i32 noundef %1, i64 noundef %2, i32 noundef %3, i32 noundef %4)
  ret void
}

; Function Attrs: mustprogress nounwind uwtable
define linkonce_odr void @_ZN6icu_757UObjectC2Ev(ptr noundef nonnull align 8 dereferenceable(8) %this) unnamed_addr #0 comdat align 2 {
entry:
  %this.addr = alloca ptr, align 8
  store ptr %this, ptr %this.addr, align 8
  %this1 = load ptr, ptr %this.addr, align 8
  store ptr getelementptr inbounds ({ [5 x ptr] }, ptr @_ZTVN6icu_757UObjectE, i32 0, i32 0, i32 2), ptr %this1, align 8
  ret void
}

; Function Attrs: mustprogress nounwind uwtable
define linkonce_odr void @_ZN6icu_7513IFixedDecimalC2Ev(ptr noundef nonnull align 8 dereferenceable(8) %this) unnamed_addr #0 comdat align 2 {
entry:
  %this.addr = alloca ptr, align 8
  store ptr %this, ptr %this.addr, align 8
  %this1 = load ptr, ptr %this.addr, align 8
  store ptr getelementptr inbounds ({ [8 x ptr] }, ptr @_ZTVN6icu_7513IFixedDecimalE, i32 0, i32 0, i32 2), ptr %this1, align 8
  ret void
}

; Function Attrs: mustprogress uwtable
define void @_ZN6icu_7512FixedDecimalC2Edili(ptr noundef nonnull align 8 dereferenceable(64) %this, double noundef %n, i32 noundef %v, i64 noundef %f, i32 noundef %e) unnamed_addr #1 align 2 personality ptr @__gxx_personality_v0 {
entry:
  %this.addr = alloca ptr, align 8
  %n.addr = alloca double, align 8
  %v.addr = alloca i32, align 4
  %f.addr = alloca i64, align 8
  %e.addr = alloca i32, align 4
  %exn.slot = alloca ptr, align 8
  %ehselector.slot = alloca i32, align 4
  store ptr %this, ptr %this.addr, align 8
  store double %n, ptr %n.addr, align 8
  store i32 %v, ptr %v.addr, align 4
  store i64 %f, ptr %f.addr, align 8
  store i32 %e, ptr %e.addr, align 4
  %this1 = load ptr, ptr %this.addr, align 8
  call void @_ZN6icu_7513IFixedDecimalC2Ev(ptr noundef nonnull align 8 dereferenceable(8) %this1) #13
  %0 = getelementptr inbounds i8, ptr %this1, i64 8
  call void @_ZN6icu_757UObjectC2Ev(ptr noundef nonnull align 8 dereferenceable(8) %0) #13
  store ptr getelementptr inbounds ({ [8 x ptr], [5 x ptr] }, ptr @_ZTVN6icu_7512FixedDecimalE, i32 0, i32 0, i32 2), ptr %this1, align 8
  %add.ptr = getelementptr inbounds i8, ptr %this1, i64 8
  store ptr getelementptr inbounds ({ [8 x ptr], [5 x ptr] }, ptr @_ZTVN6icu_7512FixedDecimalE, i32 0, i32 1, i32 2), ptr %add.ptr, align 8
  %1 = load double, ptr %n.addr, align 8
  %2 = load i32, ptr %v.addr, align 4
  %3 = load i64, ptr %f.addr, align 8
  %4 = load i32, ptr %e.addr, align 4
  invoke void @_ZN6icu_7512FixedDecimal4initEdili(ptr noundef nonnull align 8 dereferenceable(64) %this1, double noundef %1, i32 noundef %2, i64 noundef %3, i32 noundef %4)
          to label %invoke.cont unwind label %lpad

invoke.cont:                                      ; preds = %entry
  ret void

lpad:                                             ; preds = %entry
  %5 = landingpad { ptr, i32 }
          cleanup
  %6 = extractvalue { ptr, i32 } %5, 0
  store ptr %6, ptr %exn.slot, align 8
  %7 = extractvalue { ptr, i32 } %5, 1
  store i32 %7, ptr %ehselector.slot, align 4
  %8 = getelementptr inbounds i8, ptr %this1, i64 8
  call void @_ZN6icu_757UObjectD2Ev(ptr noundef nonnull align 8 dereferenceable(8) %8) #13
  call void @_ZN6icu_7513IFixedDecimalD2Ev(ptr noundef nonnull align 8 dereferenceable(8) %this1) #13
  br label %eh.resume

eh.resume:                                        ; preds = %lpad
  %exn = load ptr, ptr %exn.slot, align 8
  %sel = load i32, ptr %ehselector.slot, align 4
  %lpad.val = insertvalue { ptr, i32 } poison, ptr %exn, 0
  %lpad.val2 = insertvalue { ptr, i32 } %lpad.val, i32 %sel, 1
  resume { ptr, i32 } %lpad.val2
}